; Function Attrs: mustprogress nounwind uwtable
define hidden noundef ptr @_ZN12LinkResolver30linktime_resolve_static_methodERK8LinkInfoP10JavaThread(ptr nocapture noundef nonnull readonly align 8 dereferenceable(51) %0, ptr noundef %1) local_unnamed_addr #0 align 2 {
  %3 = alloca %class.stringStream, align 8
  %4 = getelementptr inbounds i8, ptr %0, i64 16
  %5 = load ptr, ptr %4, align 8
  %6 = getelementptr inbounds i8, ptr %5, i64 164
  %7 = load i32, ptr %6, align 4
  %8 = and i32 %7, 512
  %.not = icmp eq i32 %8, 0
  %9 = getelementptr inbounds i8, ptr %1, i64 8
  br i1 %.not, label %10, label %13

10:                                               ; preds = %2
  %11 = tail call noundef ptr @_ZN12LinkResolver14resolve_methodERK8LinkInfoN9Bytecodes4CodeEP10JavaThread(ptr noundef nonnull align 8 dereferenceable(51) %0, i32 noundef 184, ptr noundef %1)
  %12 = load ptr, ptr %9, align 8
  %.not18 = icmp eq ptr %12, null
  br i1 %.not18, label %16, label %_ZN12ResourceMarkD2Ev.exit

13:                                               ; preds = %2
  %14 = tail call noundef ptr @_ZN12LinkResolver24resolve_interface_methodERK8LinkInfoN9Bytecodes4CodeEP10JavaThread(ptr noundef nonnull align 8 dereferenceable(51) %0, i32 noundef 184, ptr noundef %1)
  %15 = load ptr, ptr %9, align 8
  %.not19 = icmp eq ptr %15, null
  br i1 %.not19, label %16, label %_ZN12ResourceMarkD2Ev.exit

16:                                               ; preds = %13, %10
  %.0 = phi ptr [ %14, %13 ], [ %11, %10 ]
  %17 = getelementptr inbounds i8, ptr %.0, i64 40
  %.sroa.0.0.copyload.i.i = load i32, ptr %17, align 8
  %18 = and i32 %.sroa.0.0.copyload.i.i, 8
  %.not20 = icmp eq i32 %18, 0
  br i1 %.not20, label %19, label %_ZN12ResourceMarkD2Ev.exit

19:                                               ; preds = %16
  %20 = getelementptr inbounds i8, ptr %1, i64 800
  %21 = load ptr, ptr %20, align 8
  %22 = getelementptr inbounds i8, ptr %21, i64 24
  %23 = load ptr, ptr %22, align 8
  %24 = getelementptr inbounds i8, ptr %21, i64 32
  %25 = load ptr, ptr %24, align 8
  %26 = getelementptr inbounds i8, ptr %21, i64 40
  %27 = load ptr, ptr %26, align 8
  %28 = getelementptr inbounds i8, ptr %21, i64 8
  %29 = load i64, ptr %28, align 8
  call void @_ZN12stringStreamC1Em(ptr noundef nonnull align 8 dereferenceable(129) %3, i64 noundef 0) #10
  call void (ptr, ptr, ...) @_ZN12outputStream5printEPKcz(ptr noundef nonnull align 8 dereferenceable(56) %3, ptr noundef nonnull @.str.42) #10
  call void @_ZNK6Method19print_external_nameEP12outputStream(ptr noundef nonnull align 8 dereferenceable(88) %.0, ptr noundef nonnull %3) #10
  call void (ptr, ptr, ...) @_ZN12outputStream5printEPKcz(ptr noundef nonnull align 8 dereferenceable(56) %3, ptr noundef nonnull @.str.26) #10
  %30 = load ptr, ptr getelementptr inbounds (i8, ptr @_ZN6Symbol11_vm_symbolsE, i64 1320), align 8
  %31 = call noundef ptr @_ZNK12stringStream9as_stringEb(ptr noundef nonnull align 8 dereferenceable(129) %3, i1 noundef zeroext false) #10
  call void @_ZN10Exceptions10_throw_msgEP10JavaThreadPKciP6SymbolS3_(ptr noundef nonnull %1, ptr noundef nonnull @.str, i32 noundef 1145, ptr noundef %30, ptr noundef %31) #10
  call void @_ZN12stringStreamD1Ev(ptr noundef nonnull align 8 dereferenceable(129) %3) #10
  %32 = load ptr, ptr %23, align 8
  %.not.i.i.i.i = icmp eq ptr %32, null
  br i1 %.not.i.i.i.i, label %34, label %33

33:                                               ; preds = %19
  call void @_ZN5Arena17set_size_in_bytesEm(ptr noundef nonnull align 8 dereferenceable(48) %21, i64 noundef %29) #10
  call void @_ZN5Chunk9next_chopEPS_(ptr noundef nonnull %23) #10
  br label %34

34:                                               ; preds = %33, %19
  %35 = load ptr, ptr %24, align 8
  %.not8.i.i.i.i = icmp eq ptr %35, %25
  br i1 %.not8.i.i.i.i, label %_ZN12ResourceMarkD2Ev.exit, label %36

36:                                               ; preds = %34
  store ptr %23, ptr %22, align 8
  store ptr %25, ptr %24, align 8
  store ptr %27, ptr %26, align 8
  br label %_ZN12ResourceMarkD2Ev.exit

_ZN12ResourceMarkD2Ev.exit:                       ; preds = %36, %34, %16, %13, %10
  %.014 = phi ptr [ null, %10 ], [ null, %13 ], [ %.0, %16 ], [ null, %34 ], [ null, %36 ]
  ret ptr %.014
}